target datalayout = "e-m:e-p270:32:32-p271:32:32-p272:64:64-i64:64-i128:128-f80:128-n8:16:32:64-S128"
target triple = "x86_64-pc-linux-gnu"

%struct.io_hdr_t = type { i32, i16, i16, i32 }

; Function Attrs: nounwind uwtable
define dso_local void @io_hdr_pack(ptr noundef %0, ptr noundef %1) #0 {
  %3 = alloca ptr, align 8
  %4 = alloca ptr, align 8
  %5 = alloca i16, align 2
  store ptr %0, ptr %3, align 8
  store ptr %1, ptr %4, align 8
  call void @llvm.lifetime.start.p0(i64 2, ptr %5) #6
  %6 = load ptr, ptr %3, align 8
  %7 = getelementptr inbounds nuw %struct.io_hdr_t, ptr %6, i32 0, i32 0
  %8 = load i32, ptr %7, align 4
  %9 = trunc i32 %8 to i16
  store i16 %9, ptr %5, align 2
  %10 = load i16, ptr %5, align 2
  %11 = load ptr, ptr %4, align 8
  call void @pack16(i16 noundef zeroext %10, ptr noundef %11)
  %12 = load ptr, ptr %3, align 8
  %13 = getelementptr inbounds nuw %struct.io_hdr_t, ptr %12, i32 0, i32 1
  %14 = load i16, ptr %13, align 4
  %15 = load ptr, ptr %4, align 8
  call void @pack16(i16 noundef zeroext %14, ptr noundef %15)
  %16 = load ptr, ptr %3, align 8
  %17 = getelementptr inbounds nuw %struct.io_hdr_t, ptr %16, i32 0, i32 2
  %18 = load i16, ptr %17, align 2
  %19 = load ptr, ptr %4, align 8
  call void @pack16(i16 noundef zeroext %18, ptr noundef %19)
  %20 = load ptr, ptr %3, align 8
  %21 = getelementptr inbounds nuw %struct.io_hdr_t, ptr %20, i32 0, i32 3
  %22 = load i32, ptr %21, align 4
  %23 = load ptr, ptr %4, align 8
  call void @pack32(i32 noundef %22, ptr noundef %23)
  call void @llvm.lifetime.end.p0(i64 2, ptr %5) #6
  ret void
}