; Function Attrs: nounwind uwtable
define dso_local void @io_hdr_pack(ptr noundef readonly captures(none) %0, ptr noundef %1) local_unnamed_addr #0 {
  %3 = load i32, ptr %0, align 4
  %4 = trunc i32 %3 to i16
  tail call void @pack16(i16 noundef zeroext %4, ptr noundef %1) #7
  %5 = getelementptr inbounds nuw i8, ptr %0, i64 4
  %6 = load i16, ptr %5, align 4
  tail call void @pack16(i16 noundef zeroext %6, ptr noundef %1) #7
  %7 = getelementptr inbounds nuw i8, ptr %0, i64 6
  %8 = load i16, ptr %7, align 2
  tail call void @pack16(i16 noundef zeroext %8, ptr noundef %1) #7
  %9 = getelementptr inbounds nuw i8, ptr %0, i64 8
  %10 = load i32, ptr %9, align 4
  tail call void @pack32(i32 noundef %10, ptr noundef %1) #7
  ret void
}